; Function Attrs: mustprogress uwtable
define void @_ZN5folly19ImmediateFileWriter12writeMessageENS_5RangeIPKcEEj(ptr noundef nonnull readonly align 8 captures(none) dereferenceable(16) %0, ptr %1, ptr %2, i32 %3) unnamed_addr #1 align 2 personality ptr @__gxx_personality_v0 {
  %5 = alloca %"class.std::__cxx11::basic_string", align 8
  %6 = alloca i32, align 4
  %7 = alloca %"class.std::__cxx11::basic_string", align 8
  %8 = getelementptr inbounds nuw i8, ptr %0, i64 8
  %9 = load i32, ptr %8, align 8, !tbaa !10
  %10 = ptrtoint ptr %2 to i64
  %11 = ptrtoint ptr %1 to i64
  %12 = sub i64 %10, %11
  %13 = tail call noundef i64 @_ZN5folly9writeFullEiPKvm(i32 noundef %9, ptr noundef %1, i64 noundef %12)
  %14 = icmp slt i64 %13, 0
  br i1 %14, label %15, label %39

15:                                               ; preds = %4
  %16 = tail call ptr @__errno_location() #19
  %17 = load i32, ptr %16, align 4, !tbaa !15
  call void @llvm.lifetime.start.p0(i64 4, ptr nonnull %6) #17
  %18 = load i32, ptr %8, align 8, !tbaa !10
  store i32 %18, ptr %6, align 4, !tbaa !15
  call void @llvm.lifetime.start.p0(i64 32, ptr nonnull %7) #17
  call void @_ZN5folly8errnoStrB5cxx11Ei(ptr dead_on_unwind nonnull writable sret(%"class.std::__cxx11::basic_string") align 8 %7, i32 noundef %17)
  call void @llvm.lifetime.start.p0(i64 32, ptr nonnull %5) #17
  invoke void @_ZN5folly2toINSt7__cxx1112basic_stringIcSt11char_traitsIcESaIcEEEJA27_ciA3_cS6_ETnNSt9enable_ifIXaasr12IsSomeStringIT_EE5valueoonesZT0_Li1Entsr3std7is_sameISA_19__type_pack_elementIXmisPvDpT0_ELi1EEJvSD_EEEE5valueEiE4typeELi0EEESA_DpRKSC_(ptr dead_on_unwind nonnull writable sret(%"class.std::__cxx11::basic_string") align 8 %5, ptr noundef nonnull align 1 dereferenceable(27) @.str.2, ptr noundef nonnull align 4 dereferenceable(4) %6, ptr noundef nonnull align 1 dereferenceable(3) @.str.3, ptr noundef nonnull align 8 dereferenceable(32) %7)
          to label %19 unwind label %28

19:                                               ; preds = %15
  call void @_ZN5folly8LoggerDB19internalWarningImplENS_5RangeIPKcEEiONSt7__cxx1112basic_stringIcSt11char_traitsIcESaIcEEE(ptr nonnull @.str.1, ptr nonnull getelementptr inbounds nuw (i8, ptr @.str.1, i64 126), i32 noundef 43, ptr noundef nonnull align 8 dereferenceable(32) %5) #17
  %20 = load ptr, ptr %5, align 8, !tbaa !16
  %21 = getelementptr inbounds nuw i8, ptr %5, i64 16
  %22 = icmp eq ptr %20, %21
  br i1 %22, label %_ZNKSt7__cxx1112basic_stringIcSt11char_traitsIcESaIcEE11_M_is_localEv.exit.thread.i.i.i, label %_ZNKSt7__cxx1112basic_stringIcSt11char_traitsIcESaIcEE11_M_is_localEv.exit.i.i.i

_ZNKSt7__cxx1112basic_stringIcSt11char_traitsIcESaIcEE11_M_is_localEv.exit.thread.i.i.i: ; preds = %19
  %23 = getelementptr inbounds nuw i8, ptr %5, i64 8
  %24 = load i64, ptr %23, align 8, !tbaa !22
  %25 = icmp ult i64 %24, 16
  call void @llvm.assume(i1 %25)
  br label %_ZN5folly8LoggerDB15internalWarningIJRA27_KciRA3_S2_NSt7__cxx1112basic_stringIcSt11char_traitsIcESaIcEEEEEEvNS_5RangeIPS2_EEiDpOT_.exit

_ZNKSt7__cxx1112basic_stringIcSt11char_traitsIcESaIcEE11_M_is_localEv.exit.i.i.i: ; preds = %19
  %26 = load i64, ptr %21, align 8, !tbaa !23
  %27 = add i64 %26, 1
  call void @_ZdlPvm(ptr noundef %20, i64 noundef %27) #18
  br label %_ZN5folly8LoggerDB15internalWarningIJRA27_KciRA3_S2_NSt7__cxx1112basic_stringIcSt11char_traitsIcESaIcEEEEEEvNS_5RangeIPS2_EEiDpOT_.exit

28:                                               ; preds = %15
  %29 = landingpad { ptr, i32 }
          catch ptr null
  %30 = extractvalue { ptr, i32 } %29, 0
  call void @__clang_call_terminate(ptr %30) #20
  unreachable

_ZN5folly8LoggerDB15internalWarningIJRA27_KciRA3_S2_NSt7__cxx1112basic_stringIcSt11char_traitsIcESaIcEEEEEEvNS_5RangeIPS2_EEiDpOT_.exit: ; preds = %_ZNKSt7__cxx1112basic_stringIcSt11char_traitsIcESaIcEE11_M_is_localEv.exit.thread.i.i.i, %_ZNKSt7__cxx1112basic_stringIcSt11char_traitsIcESaIcEE11_M_is_localEv.exit.i.i.i
  call void @llvm.lifetime.end.p0(i64 32, ptr nonnull %5) #17
  %31 = load ptr, ptr %7, align 8, !tbaa !16
  %32 = getelementptr inbounds nuw i8, ptr %7, i64 16
  %33 = icmp eq ptr %31, %32
  br i1 %33, label %_ZNKSt7__cxx1112basic_stringIcSt11char_traitsIcESaIcEE11_M_is_localEv.exit.thread.i.i, label %_ZNKSt7__cxx1112basic_stringIcSt11char_traitsIcESaIcEE11_M_is_localEv.exit.i.i

_ZNKSt7__cxx1112basic_stringIcSt11char_traitsIcESaIcEE11_M_is_localEv.exit.thread.i.i: ; preds = %_ZN5folly8LoggerDB15internalWarningIJRA27_KciRA3_S2_NSt7__cxx1112basic_stringIcSt11char_traitsIcESaIcEEEEEEvNS_5RangeIPS2_EEiDpOT_.exit
  %34 = getelementptr inbounds nuw i8, ptr %7, i64 8
  %35 = load i64, ptr %34, align 8, !tbaa !22
  %36 = icmp ult i64 %35, 16
  call void @llvm.assume(i1 %36)
  br label %_ZNSt7__cxx1112basic_stringIcSt11char_traitsIcESaIcEED2Ev.exit

_ZNKSt7__cxx1112basic_stringIcSt11char_traitsIcESaIcEE11_M_is_localEv.exit.i.i: ; preds = %_ZN5folly8LoggerDB15internalWarningIJRA27_KciRA3_S2_NSt7__cxx1112basic_stringIcSt11char_traitsIcESaIcEEEEEEvNS_5RangeIPS2_EEiDpOT_.exit
  %37 = load i64, ptr %32, align 8, !tbaa !23
  %38 = add i64 %37, 1
  call void @_ZdlPvm(ptr noundef %31, i64 noundef %38) #18
  br label %_ZNSt7__cxx1112basic_stringIcSt11char_traitsIcESaIcEED2Ev.exit

_ZNSt7__cxx1112basic_stringIcSt11char_traitsIcESaIcEED2Ev.exit: ; preds = %_ZNKSt7__cxx1112basic_stringIcSt11char_traitsIcESaIcEE11_M_is_localEv.exit.thread.i.i, %_ZNKSt7__cxx1112basic_stringIcSt11char_traitsIcESaIcEE11_M_is_localEv.exit.i.i
  call void @llvm.lifetime.end.p0(i64 32, ptr nonnull %7) #17
  call void @llvm.lifetime.end.p0(i64 4, ptr nonnull %6) #17
  br label %39

39:                                               ; preds = %_ZNSt7__cxx1112basic_stringIcSt11char_traitsIcESaIcEED2Ev.exit, %4
  ret void
}